(dp0
S'share'
p1
(dp2
S'mother'
p3
S'shark'
p4
sS'father'
p5
S'fuck'
p6
sS'son'
p7
(lp8
S'nice'
p9
assS'tom'
p10
(dp11
S'son'
p12
(lp13
S'papa'
p14
asS'father'
p15
S'lala'
p16
sS'mother'
p17
S'lili'
p18
ss.