(dp0
S'share'
p1
(dp2
S'son'
p3
(lp4
S'nice'
p5
asS'father'
p6
S'fuck'
p7
sS'mother'
p8
S'shark'
p9
ssS'tom'
p10
(dp11
S'mother'
p12
S'lili'
p13
sS'father'
p14
S'lala'
p15
sS'son'
p16
(lp17
S'papa'
p18
ass.